target datalayout = "e-m:e-p270:32:32-p271:32:32-p272:64:64-i64:64-i128:128-f80:128-n8:16:32:64-S128"
target triple = "x86_64-pc-linux-gnu"

%class.cmCTestVC = type <{ ptr, ptr, ptr, %"class.std::__cxx11::basic_string", %"class.std::__cxx11::basic_string", %"class.std::__cxx11::basic_string", %"struct.cmCTestVC::Revision", [3 x i32], [4 x i8] }>
%"class.std::__cxx11::basic_string" = type { %"struct.std::__cxx11::basic_string<char>::_Alloc_hider", i64, %union.anon }
%"struct.std::__cxx11::basic_string<char>::_Alloc_hider" = type { ptr }
%union.anon = type { i64, [8 x i8] }
%"struct.cmCTestVC::Revision" = type { %"class.std::__cxx11::basic_string", %"class.std::__cxx11::basic_string", %"class.std::__cxx11::basic_string", %"class.std::__cxx11::basic_string", %"class.std::__cxx11::basic_string", %"class.std::__cxx11::basic_string", %"class.std::__cxx11::basic_string", %"class.std::__cxx11::basic_string" }

@.str = private unnamed_addr constant [8 x i8] c"Unknown\00", align 1

; Function Attrs: mustprogress nounwind uwtable
define linkonce_odr dso_local void @_ZN9cmCTestVC8RevisionC2Ev(ptr noundef nonnull align 8 dereferenceable(256) %0) unnamed_addr #5 comdat align 2 {
  %2 = alloca ptr, align 8
  store ptr %0, ptr %2, align 8
  %3 = load ptr, ptr %2, align 8
  %4 = getelementptr inbounds %"struct.cmCTestVC::Revision", ptr %3, i32 0, i32 0
  call void @_ZNSt7__cxx1112basic_stringIcSt11char_traitsIcESaIcEEC1Ev(ptr noundef nonnull align 8 dereferenceable(32) %4) #3
  %5 = getelementptr inbounds %"struct.cmCTestVC::Revision", ptr %3, i32 0, i32 1
  call void @_ZNSt7__cxx1112basic_stringIcSt11char_traitsIcESaIcEEC1Ev(ptr noundef nonnull align 8 dereferenceable(32) %5) #3
  %6 = getelementptr inbounds %"struct.cmCTestVC::Revision", ptr %3, i32 0, i32 2
  call void @_ZNSt7__cxx1112basic_stringIcSt11char_traitsIcESaIcEEC1Ev(ptr noundef nonnull align 8 dereferenceable(32) %6) #3
  %7 = getelementptr inbounds %"struct.cmCTestVC::Revision", ptr %3, i32 0, i32 3
  call void @_ZNSt7__cxx1112basic_stringIcSt11char_traitsIcESaIcEEC1Ev(ptr noundef nonnull align 8 dereferenceable(32) %7) #3
  %8 = getelementptr inbounds %"struct.cmCTestVC::Revision", ptr %3, i32 0, i32 4
  call void @_ZNSt7__cxx1112basic_stringIcSt11char_traitsIcESaIcEEC1Ev(ptr noundef nonnull align 8 dereferenceable(32) %8) #3
  %9 = getelementptr inbounds %"struct.cmCTestVC::Revision", ptr %3, i32 0, i32 5
  call void @_ZNSt7__cxx1112basic_stringIcSt11char_traitsIcESaIcEEC1Ev(ptr noundef nonnull align 8 dereferenceable(32) %9) #3
  %10 = getelementptr inbounds %"struct.cmCTestVC::Revision", ptr %3, i32 0, i32 6
  call void @_ZNSt7__cxx1112basic_stringIcSt11char_traitsIcESaIcEEC1Ev(ptr noundef nonnull align 8 dereferenceable(32) %10) #3
  %11 = getelementptr inbounds %"struct.cmCTestVC::Revision", ptr %3, i32 0, i32 7
  call void @_ZNSt7__cxx1112basic_stringIcSt11char_traitsIcESaIcEEC1Ev(ptr noundef nonnull align 8 dereferenceable(32) %11) #3
  ret void
}

; Function Attrs: mustprogress uwtable
define dso_local void @_ZN9cmCTestVCC2EP7cmCTestRSo(ptr noundef nonnull align 8 dereferenceable(388) %0, ptr noundef %1, ptr noundef nonnull align 8 dereferenceable(8) %2) unnamed_addr #4 align 2 personality ptr @__gxx_personality_v0 {
  %4 = alloca ptr, align 8
  %5 = alloca ptr, align 8
  %6 = alloca ptr, align 8
  %7 = alloca ptr, align 8
  %8 = alloca i32, align 4
  store ptr %0, ptr %4, align 8
  store ptr %1, ptr %5, align 8
  store ptr %2, ptr %6, align 8
  %9 = load ptr, ptr %4, align 8
  store ptr getelementptr inbounds ({ [10 x ptr] }, ptr @_ZTV9cmCTestVC, i32 0, i32 0, i32 2), ptr %9, align 8
  %10 = getelementptr inbounds %class.cmCTestVC, ptr %9, i32 0, i32 1
  %11 = load ptr, ptr %5, align 8
  store ptr %11, ptr %10, align 8
  %12 = getelementptr inbounds %class.cmCTestVC, ptr %9, i32 0, i32 2
  %13 = load ptr, ptr %6, align 8
  store ptr %13, ptr %12, align 8
  %14 = getelementptr inbounds %class.cmCTestVC, ptr %9, i32 0, i32 3
  call void @_ZNSt7__cxx1112basic_stringIcSt11char_traitsIcESaIcEEC1Ev(ptr noundef nonnull align 8 dereferenceable(32) %14) #3
  %15 = getelementptr inbounds %class.cmCTestVC, ptr %9, i32 0, i32 4
  call void @_ZNSt7__cxx1112basic_stringIcSt11char_traitsIcESaIcEEC1Ev(ptr noundef nonnull align 8 dereferenceable(32) %15) #3
  %16 = getelementptr inbounds %class.cmCTestVC, ptr %9, i32 0, i32 5
  call void @_ZNSt7__cxx1112basic_stringIcSt11char_traitsIcESaIcEEC1Ev(ptr noundef nonnull align 8 dereferenceable(32) %16) #3
  %17 = getelementptr inbounds %class.cmCTestVC, ptr %9, i32 0, i32 6
  call void @_ZN9cmCTestVC8RevisionC2Ev(ptr noundef nonnull align 8 dereferenceable(256) %17) #3
  %18 = getelementptr inbounds %class.cmCTestVC, ptr %9, i32 0, i32 7
  %19 = getelementptr inbounds [3 x i32], ptr %18, i64 0, i64 0
  store i32 0, ptr %19, align 8
  %20 = getelementptr inbounds %class.cmCTestVC, ptr %9, i32 0, i32 7
  %21 = getelementptr inbounds [3 x i32], ptr %20, i64 0, i64 1
  store i32 0, ptr %21, align 4
  %22 = getelementptr inbounds %class.cmCTestVC, ptr %9, i32 0, i32 7
  %23 = getelementptr inbounds [3 x i32], ptr %22, i64 0, i64 2
  store i32 0, ptr %23, align 8
  %24 = getelementptr inbounds %class.cmCTestVC, ptr %9, i32 0, i32 6
  %25 = getelementptr inbounds %"struct.cmCTestVC::Revision", ptr %24, i32 0, i32 1
  %26 = invoke noundef nonnull align 8 dereferenceable(32) ptr @_ZNSt7__cxx1112basic_stringIcSt11char_traitsIcESaIcEEaSEPKc(ptr noundef nonnull align 8 dereferenceable(32) %25, ptr noundef @.str)
          to label %27 unwind label %36

27:                                               ; preds = %3
  %28 = getelementptr inbounds %class.cmCTestVC, ptr %9, i32 0, i32 6
  %29 = getelementptr inbounds %"struct.cmCTestVC::Revision", ptr %28, i32 0, i32 2
  %30 = invoke noundef nonnull align 8 dereferenceable(32) ptr @_ZNSt7__cxx1112basic_stringIcSt11char_traitsIcESaIcEEaSEPKc(ptr noundef nonnull align 8 dereferenceable(32) %29, ptr noundef @.str)
          to label %31 unwind label %36

31:                                               ; preds = %27
  %32 = getelementptr inbounds %class.cmCTestVC, ptr %9, i32 0, i32 6
  %33 = getelementptr inbounds %"struct.cmCTestVC::Revision", ptr %32, i32 0, i32 0
  %34 = invoke noundef nonnull align 8 dereferenceable(32) ptr @_ZNSt7__cxx1112basic_stringIcSt11char_traitsIcESaIcEEaSEPKc(ptr noundef nonnull align 8 dereferenceable(32) %33, ptr noundef @.str)
          to label %35 unwind label %36

35:                                               ; preds = %31
  ret void

36:                                               ; preds = %31, %27, %3
  %37 = landingpad { ptr, i32 }
          cleanup
  %38 = extractvalue { ptr, i32 } %37, 0
  store ptr %38, ptr %7, align 8
  %39 = extractvalue { ptr, i32 } %37, 1
  store i32 %39, ptr %8, align 4
  call void @_ZN9cmCTestVC8RevisionD2Ev(ptr noundef nonnull align 8 dereferenceable(256) %17) #3
  call void @_ZNSt7__cxx1112basic_stringIcSt11char_traitsIcESaIcEED1Ev(ptr noundef nonnull align 8 dereferenceable(32) %16) #3
  call void @_ZNSt7__cxx1112basic_stringIcSt11char_traitsIcESaIcEED1Ev(ptr noundef nonnull align 8 dereferenceable(32) %15) #3
  call void @_ZNSt7__cxx1112basic_stringIcSt11char_traitsIcESaIcEED1Ev(ptr noundef nonnull align 8 dereferenceable(32) %14) #3
  br label %40

40:                                               ; preds = %36
  %41 = load ptr, ptr %7, align 8
  %42 = load i32, ptr %8, align 4
  %43 = insertvalue { ptr, i32 } poison, ptr %41, 0
  %44 = insertvalue { ptr, i32 } %43, i32 %42, 1
  resume { ptr, i32 } %44
}